; Function Attrs: nounwind sspstrong uwtable
define internal noundef i64 @ossl_ocspsres_initialize(i64 noundef returned %0, i64 noundef %1) #0 {
  %3 = alloca i64, align 8
  %4 = alloca ptr, align 8
  call void @llvm.lifetime.start.p0(i64 8, ptr nonnull %4) #5
  %5 = tail call i64 @ossl_to_der_if_possible(i64 noundef %1) #5
  store i64 %5, ptr %3, align 8, !tbaa !6
  %6 = call i64 @rb_string_value(ptr noundef nonnull %3) #5
  %7 = call ptr @rb_check_typeddata(i64 noundef %0, ptr noundef nonnull @ossl_ocsp_singleresp_type) #5
  %.not = icmp eq ptr %7, null
  br i1 %.not, label %8, label %10

8:                                                ; preds = %2
  %9 = load i64, ptr @rb_eRuntimeError, align 8, !tbaa !6
  call void (i64, ptr, ...) @ossl_raise(i64 noundef %9, ptr noundef nonnull @.str.87) #6
  unreachable

10:                                               ; preds = %2
  %11 = load i64, ptr %3, align 8, !tbaa !6
  %12 = inttoptr i64 %11 to ptr
  %13 = load i64, ptr %12, align 8, !tbaa !16, !noalias !73
  %14 = and i64 %13, 8192
  %.not.i.i = icmp eq i64 %14, 0
  %15 = getelementptr inbounds nuw i8, ptr %12, i64 24
  br i1 %.not.i.i, label %RSTRING_PTR.exit, label %16

16:                                               ; preds = %10
  %.sroa.2.0.copyload.i = load ptr, ptr %15, align 8
  br label %RSTRING_PTR.exit

RSTRING_PTR.exit:                                 ; preds = %10, %16
  %.sroa.2.0.i = phi ptr [ %.sroa.2.0.copyload.i, %16 ], [ %15, %10 ]
  store ptr %.sroa.2.0.i, ptr %4, align 8, !tbaa !22
  %17 = getelementptr inbounds nuw i8, ptr %12, i64 16
  %18 = load i64, ptr %17, align 8, !tbaa !24
  %19 = call ptr @d2i_OCSP_SINGLERESP(ptr noundef null, ptr noundef nonnull %4, i64 noundef %18) #5
  %.not8 = icmp eq ptr %19, null
  br i1 %.not8, label %20, label %22

20:                                               ; preds = %RSTRING_PTR.exit
  %21 = load i64, ptr @eOCSPError, align 8, !tbaa !6
  call void (i64, ptr, ...) @ossl_raise(i64 noundef %21, ptr noundef nonnull @.str.89) #6
  unreachable

22:                                               ; preds = %RSTRING_PTR.exit
  %23 = inttoptr i64 %0 to ptr
  %24 = getelementptr inbounds nuw i8, ptr %23, i64 32
  store ptr %19, ptr %24, align 8, !tbaa !10
  call void @OCSP_SINGLERESP_free(ptr noundef nonnull %7) #5
  call void @llvm.lifetime.end.p0(i64 8, ptr nonnull %4) #5
  ret i64 %0
}